target datalayout = "e-m:e-p270:32:32-p271:32:32-p272:64:64-i64:64-i128:128-f80:128-n8:16:32:64-S128"
target triple = "x86_64-pc-linux-gnu"

%struct.cli_bc_ctx = type { i8, i16, i32, ptr, ptr, i32, i32, ptr, ptr, ptr, i32, i32, i64, ptr, ptr, ptr, %struct.cli_bc_hooks, %struct.cli_exe_info, [64 x i32], [64 x i32], i32, ptr, ptr, i32, i32, i32, i32, ptr, i32, ptr, ptr, i32, i32, i32, i32, i32, i32, ptr, ptr, ptr, ptr, ptr, ptr, ptr, i32, i32, i32, i32, ptr, ptr, ptr, ptr, ptr, i32, i32, i32, i32, ptr, ptr, ptr, ptr, i32, i32, i32, ptr, i32, ptr, i32, i32, ptr, i32 }
%struct.cli_bc_hooks = type { ptr, ptr, ptr, ptr, ptr }
%struct.cli_exe_info = type { ptr, i32, i32, i16, i32, i32, %struct.cli_hashset, i32, i32, i32, i32, i32, i32, i32, i32, i32, %struct.pe_image_file_hdr, %union.anon, [16 x %struct.pe_image_data_dir] }
%struct.cli_hashset = type { ptr, ptr, ptr, i32, i32, i32, i32 }
%struct.pe_image_file_hdr = type { i32, i16, i16, i32, i32, i32, i16, i16 }
%union.anon = type { %struct.pe_image_optional_hdr64 }
%struct.pe_image_optional_hdr64 = type { i16, i8, i8, i32, i32, i32, i32, i32, i64, i32, i32, i16, i16, i16, i16, i16, i16, i32, i32, i32, i32, i16, i16, i64, i64, i64, i64, i32, i32 }
%struct.pe_image_data_dir = type { i32, i32 }

; Function Attrs: nounwind uwtable
define i32 @cli_bcapi_trace_op(ptr noundef %0, ptr noundef %1, i32 noundef %2) #0 {
  %4 = alloca i32, align 4
  %5 = alloca ptr, align 8
  %6 = alloca ptr, align 8
  %7 = alloca i32, align 4
  store ptr %0, ptr %5, align 8
  store ptr %1, ptr %6, align 8
  store i32 %2, ptr %7, align 4
  %8 = load ptr, ptr %5, align 8
  %9 = getelementptr inbounds %struct.cli_bc_ctx, ptr %8, i32 0, i32 44
  %10 = load i32, ptr %9, align 8
  %11 = icmp ult i32 %10, 5
  %12 = xor i1 %11, true
  %13 = xor i1 %12, true
  %14 = zext i1 %13 to i32
  %15 = sext i32 %14 to i64
  %16 = icmp ne i64 %15, 0
  br i1 %16, label %17, label %18

17:                                               ; preds = %3
  store i32 0, ptr %4, align 4
  br label %98

18:                                               ; preds = %3
  %19 = load ptr, ptr %5, align 8
  %20 = getelementptr inbounds %struct.cli_bc_ctx, ptr %19, i32 0, i32 44
  %21 = load i32, ptr %20, align 8
  %22 = and i32 %21, 192
  %23 = icmp ne i32 %22, 0
  br i1 %23, label %24, label %42

24:                                               ; preds = %18
  %25 = load i32, ptr %7, align 4
  %26 = load ptr, ptr %5, align 8
  %27 = getelementptr inbounds %struct.cli_bc_ctx, ptr %26, i32 0, i32 47
  store i32 %25, ptr %27, align 4
  %28 = load ptr, ptr %5, align 8
  %29 = getelementptr inbounds %struct.cli_bc_ctx, ptr %28, i32 0, i32 37
  %30 = load ptr, ptr %29, align 8
  %31 = load ptr, ptr %5, align 8
  %32 = load ptr, ptr %5, align 8
  %33 = getelementptr inbounds %struct.cli_bc_ctx, ptr %32, i32 0, i32 44
  %34 = load i32, ptr %33, align 8
  %35 = and i32 %34, 128
  %36 = icmp ne i32 %35, 0
  %37 = select i1 %36, i32 1, i32 3
  call void %30(ptr noundef %31, i32 noundef %37)
  %38 = load ptr, ptr %5, align 8
  %39 = getelementptr inbounds %struct.cli_bc_ctx, ptr %38, i32 0, i32 44
  %40 = load i32, ptr %39, align 8
  %41 = and i32 %40, -193
  store i32 %41, ptr %39, align 8
  br label %42

42:                                               ; preds = %24, %18
  %43 = load ptr, ptr %5, align 8
  %44 = getelementptr inbounds %struct.cli_bc_ctx, ptr %43, i32 0, i32 44
  %45 = load i32, ptr %44, align 8
  %46 = icmp ult i32 %45, 5
  %47 = xor i1 %46, true
  %48 = xor i1 %47, true
  %49 = zext i1 %48 to i32
  %50 = sext i32 %49 to i64
  %51 = icmp ne i64 %50, 0
  br i1 %51, label %52, label %53

52:                                               ; preds = %42
  store i32 0, ptr %4, align 4
  br label %98

53:                                               ; preds = %42
  %54 = load ptr, ptr %5, align 8
  %55 = getelementptr inbounds %struct.cli_bc_ctx, ptr %54, i32 0, i32 47
  %56 = load i32, ptr %55, align 4
  %57 = load i32, ptr %7, align 4
  %58 = icmp ne i32 %56, %57
  br i1 %58, label %59, label %67

59:                                               ; preds = %53
  %60 = load i32, ptr %7, align 4
  %61 = load ptr, ptr %5, align 8
  %62 = getelementptr inbounds %struct.cli_bc_ctx, ptr %61, i32 0, i32 47
  store i32 %60, ptr %62, align 4
  %63 = load ptr, ptr %5, align 8
  %64 = getelementptr inbounds %struct.cli_bc_ctx, ptr %63, i32 0, i32 37
  %65 = load ptr, ptr %64, align 8
  %66 = load ptr, ptr %5, align 8
  call void %65(ptr noundef %66, i32 noundef 5)
  br label %72

67:                                               ; preds = %53
  %68 = load ptr, ptr %5, align 8
  %69 = getelementptr inbounds %struct.cli_bc_ctx, ptr %68, i32 0, i32 37
  %70 = load ptr, ptr %69, align 8
  %71 = load ptr, ptr %5, align 8
  call void %70(ptr noundef %71, i32 noundef 4)
  br label %72

72:                                               ; preds = %67, %59
  %73 = load ptr, ptr %5, align 8
  %74 = getelementptr inbounds %struct.cli_bc_ctx, ptr %73, i32 0, i32 44
  %75 = load i32, ptr %74, align 8
  %76 = icmp ult i32 %75, 6
  %77 = xor i1 %76, true
  %78 = xor i1 %77, true
  %79 = zext i1 %78 to i32
  %80 = sext i32 %79 to i64
  %81 = icmp ne i64 %80, 0
  br i1 %81, label %82, label %83

82:                                               ; preds = %72
  store i32 0, ptr %4, align 4
  br label %98

83:                                               ; preds = %72
  %84 = load ptr, ptr %5, align 8
  %85 = getelementptr inbounds %struct.cli_bc_ctx, ptr %84, i32 0, i32 38
  %86 = load ptr, ptr %85, align 8
  %87 = icmp ne ptr %86, null
  br i1 %87, label %88, label %97

88:                                               ; preds = %83
  %89 = load ptr, ptr %6, align 8
  %90 = icmp ne ptr %89, null
  br i1 %90, label %91, label %97

91:                                               ; preds = %88
  %92 = load ptr, ptr %5, align 8
  %93 = getelementptr inbounds %struct.cli_bc_ctx, ptr %92, i32 0, i32 38
  %94 = load ptr, ptr %93, align 8
  %95 = load ptr, ptr %5, align 8
  %96 = load ptr, ptr %6, align 8
  call void %94(ptr noundef %95, ptr noundef %96)
  br label %97

97:                                               ; preds = %91, %88, %83
  store i32 0, ptr %4, align 4
  br label %98

98:                                               ; preds = %97, %82, %52, %17
  %99 = load i32, ptr %4, align 4
  ret i32 %99
}