; Function Attrs: nounwind uwtable
define noundef i32 @cli_bcapi_trace_op(ptr noundef %0, ptr noundef %1, i32 noundef %2) local_unnamed_addr #1 {
  %4 = getelementptr inbounds i8, ptr %0, i64 1176
  %5 = load i32, ptr %4, align 8
  %6 = icmp ult i32 %5, 5
  br i1 %6, label %32, label %7

7:                                                ; preds = %3
  %8 = and i32 %5, 192
  %.not = icmp eq i32 %8, 0
  br i1 %.not, label %.thread, label %9

9:                                                ; preds = %7
  %10 = getelementptr inbounds i8, ptr %0, i64 1188
  store i32 %2, ptr %10, align 4
  %11 = getelementptr inbounds i8, ptr %0, i64 1120
  %12 = load ptr, ptr %11, align 8
  %13 = and i32 %5, 128
  %.not27 = icmp eq i32 %13, 0
  %14 = select i1 %.not27, i32 3, i32 1
  tail call void %12(ptr noundef nonnull %0, i32 noundef %14) #29
  %15 = load i32, ptr %4, align 8
  %16 = and i32 %15, -193
  store i32 %16, ptr %4, align 8
  %17 = icmp ult i32 %16, 5
  br i1 %17, label %32, label %.thread

.thread:                                          ; preds = %7, %9
  %18 = getelementptr inbounds i8, ptr %0, i64 1188
  %19 = load i32, ptr %18, align 4
  %.not28 = icmp eq i32 %19, %2
  br i1 %.not28, label %21, label %20

20:                                               ; preds = %.thread
  store i32 %2, ptr %18, align 4
  br label %21

21:                                               ; preds = %.thread, %20
  %.sink = phi i32 [ 5, %20 ], [ 4, %.thread ]
  %22 = getelementptr inbounds i8, ptr %0, i64 1120
  %23 = load ptr, ptr %22, align 8
  tail call void %23(ptr noundef nonnull %0, i32 noundef %.sink) #29
  %24 = load i32, ptr %4, align 8
  %25 = icmp ult i32 %24, 6
  br i1 %25, label %32, label %26

26:                                               ; preds = %21
  %27 = getelementptr inbounds i8, ptr %0, i64 1128
  %28 = load ptr, ptr %27, align 8
  %29 = icmp ne ptr %28, null
  %30 = icmp ne ptr %1, null
  %or.cond = and i1 %30, %29
  br i1 %or.cond, label %31, label %32

31:                                               ; preds = %26
  tail call void %28(ptr noundef nonnull %0, ptr noundef nonnull %1) #29
  br label %32

32:                                               ; preds = %26, %31, %21, %9, %3
  ret i32 0
}